; Function Attrs: mustprogress nofree norecurse nosync nounwind willreturn memory(read, inaccessiblemem: none) uwtable
define noundef zeroext i1 @_ZNK11llama_vocab4impl6is_eogEi(ptr noundef nonnull readonly align 8 dereferenceable(360) %0, i32 noundef %1) local_unnamed_addr #14 align 2 {
  %.not = icmp eq i32 %1, -1
  br i1 %.not, label %16, label %3

3:                                                ; preds = %2
  %4 = getelementptr inbounds nuw i8, ptr %0, i64 288
  %5 = load ptr, ptr %4, align 8, !tbaa !128
  %6 = getelementptr inbounds nuw i8, ptr %0, i64 280
  %.not10.i.i.i = icmp eq ptr %5, null
  br i1 %.not10.i.i.i, label %_ZNKSt3setIiSt4lessIiESaIiEE5countERKi.exit, label %.lr.ph.i.i.i

.lr.ph.i.i.i:                                     ; preds = %3, %.lr.ph.i.i.i
  %.012.i.i.i = phi ptr [ %.1.i.i.i, %.lr.ph.i.i.i ], [ %5, %3 ]
  %.0811.i.i.i = phi ptr [ %.19.i.i.i, %.lr.ph.i.i.i ], [ %6, %3 ]
  %7 = getelementptr inbounds nuw i8, ptr %.012.i.i.i, i64 32
  %8 = load i32, ptr %7, align 4, !tbaa !69
  %9 = icmp slt i32 %8, %1
  %.19.i.i.i = select i1 %9, ptr %.0811.i.i.i, ptr %.012.i.i.i
  %.1.in.v.i.i.i = select i1 %9, i64 24, i64 16
  %.1.in.i.i.i = getelementptr inbounds nuw i8, ptr %.012.i.i.i, i64 %.1.in.v.i.i.i
  %.1.i.i.i = load ptr, ptr %.1.in.i.i.i, align 8, !tbaa !142
  %.not.i.i.i = icmp eq ptr %.1.i.i.i, null
  br i1 %.not.i.i.i, label %_ZNKSt8_Rb_treeIiiSt9_IdentityIiESt4lessIiESaIiEE14_M_lower_boundEPKSt13_Rb_tree_nodeIiEPKSt18_Rb_tree_node_baseRKi.exit.i.i, label %.lr.ph.i.i.i, !llvm.loop !143

_ZNKSt8_Rb_treeIiiSt9_IdentityIiESt4lessIiESaIiEE14_M_lower_boundEPKSt13_Rb_tree_nodeIiEPKSt18_Rb_tree_node_baseRKi.exit.i.i: ; preds = %.lr.ph.i.i.i
  %10 = icmp eq ptr %.19.i.i.i, %6
  br i1 %10, label %_ZNKSt3setIiSt4lessIiESaIiEE5countERKi.exit, label %11

11:                                               ; preds = %_ZNKSt8_Rb_treeIiiSt9_IdentityIiESt4lessIiESaIiEE14_M_lower_boundEPKSt13_Rb_tree_nodeIiEPKSt18_Rb_tree_node_baseRKi.exit.i.i
  %12 = getelementptr inbounds nuw i8, ptr %.19.i.i.i, i64 32
  %13 = load i32, ptr %12, align 4, !tbaa !69
  %14 = icmp slt i32 %1, %13
  %spec.select.i.i = select i1 %14, ptr %6, ptr %.19.i.i.i
  br label %_ZNKSt3setIiSt4lessIiESaIiEE5countERKi.exit

_ZNKSt3setIiSt4lessIiESaIiEE5countERKi.exit:      ; preds = %3, %_ZNKSt8_Rb_treeIiiSt9_IdentityIiESt4lessIiESaIiEE14_M_lower_boundEPKSt13_Rb_tree_nodeIiEPKSt18_Rb_tree_node_baseRKi.exit.i.i, %11
  %.sroa.0.0.i.i = phi ptr [ %6, %_ZNKSt8_Rb_treeIiiSt9_IdentityIiESt4lessIiESaIiEE14_M_lower_boundEPKSt13_Rb_tree_nodeIiEPKSt18_Rb_tree_node_baseRKi.exit.i.i ], [ %6, %3 ], [ %spec.select.i.i, %11 ]
  %15 = icmp ne ptr %.sroa.0.0.i.i, %6
  br label %16

16:                                               ; preds = %_ZNKSt3setIiSt4lessIiESaIiEE5countERKi.exit, %2
  %17 = phi i1 [ false, %2 ], [ %15, %_ZNKSt3setIiSt4lessIiESaIiEE5countERKi.exit ]
  ret i1 %17
}